target datalayout = "e-m:e-p270:32:32-p271:32:32-p272:64:64-i64:64-i128:128-f80:128-n8:16:32:64-S128"
target triple = "x86_64-pc-linux-gnu"

%struct.Abc_Cex_t_ = type { i32, i32, i32, i32, i32, [0 x i32] }
%struct.Gia_Man_t_ = type { ptr, ptr, i32, i32, i32, i32, ptr, ptr, i32, i32, i32, ptr, ptr, %struct.Vec_Int_t_, %struct.Vec_Int_t_, i32, i32, i32, %struct.Vec_Int_t_, ptr, ptr, ptr, i32, i32, i32, i32, ptr, ptr, ptr, ptr, ptr, i32, i32, ptr, i32, ptr, ptr, ptr, ptr, ptr, ptr, ptr, ptr, ptr, ptr, ptr, ptr, ptr, ptr, ptr, ptr, ptr, ptr, %struct.Vec_Int_t_, %struct.Vec_Int_t_, ptr, ptr, ptr, ptr, ptr, ptr, ptr, ptr, ptr, ptr, ptr, ptr, ptr, ptr, ptr, ptr, ptr, ptr, ptr, ptr, ptr, i32, float, float, ptr, ptr, i32, ptr, ptr, ptr, ptr, ptr, ptr, ptr, ptr, ptr, ptr, ptr, ptr, ptr, ptr, ptr, i64, i64, ptr, ptr, i32, i32, i32, i32, i32, i32, i32, i32, i32, i32, i32, i32, ptr, ptr, ptr, ptr, ptr, ptr, ptr, ptr, i32, i32, i32, ptr, i32, i32, ptr, ptr, ptr, ptr, ptr, ptr, i32, i32, ptr, %struct.Vec_Int_t_, %struct.Vec_Int_t_, %struct.Vec_Int_t_, ptr, ptr, ptr, i32, i32, i32, i32, ptr, ptr, ptr, ptr, ptr }
%struct.Vec_Int_t_ = type { i32, i32, ptr }
%struct.Gia_Obj_t_ = type <{ i64, i32 }>

@.str = private unnamed_addr constant [48 x i8] c"Gia_ManCexRemap(): Counter-example is invalid.\0A\00", align 1
@.str.1 = private unnamed_addr constant [45 x i8] c"Counter-example verification is successful.\0A\00", align 1
@.str.2 = private unnamed_addr constant [52 x i8] c"Output %d of miter \22%s\22 was asserted in frame %d. \0A\00", align 1

; Function Attrs: inlinehint nounwind uwtable
define internal void @Abc_InfoSetBit(ptr noundef %0, i32 noundef %1) #3 {
  %3 = alloca ptr, align 8
  %4 = alloca i32, align 4
  store ptr %0, ptr %3, align 8, !tbaa !43
  store i32 %1, ptr %4, align 4, !tbaa !16
  %5 = load i32, ptr %4, align 4, !tbaa !16
  %6 = and i32 %5, 31
  %7 = shl i32 1, %6
  %8 = load ptr, ptr %3, align 8, !tbaa !43
  %9 = load i32, ptr %4, align 4, !tbaa !16
  %10 = ashr i32 %9, 5
  %11 = sext i32 %10 to i64
  %12 = getelementptr inbounds i32, ptr %8, i64 %11
  %13 = load i32, ptr %12, align 4, !tbaa !16
  %14 = or i32 %13, %7
  store i32 %14, ptr %12, align 4, !tbaa !16
  ret void
}

; Function Attrs: inlinehint nounwind uwtable
define internal i32 @Gia_ObjCioId(ptr noundef %0) #3 {
  %2 = alloca ptr, align 8
  store ptr %0, ptr %2, align 8, !tbaa !44
  %3 = load ptr, ptr %2, align 8, !tbaa !44
  %4 = load i64, ptr %3, align 4
  %5 = lshr i64 %4, 32
  %6 = and i64 %5, 536870911
  %7 = trunc i64 %6 to i32
  ret i32 %7
}

; Function Attrs: inlinehint nounwind uwtable
define internal ptr @Gia_ManObj(ptr noundef %0, i32 noundef %1) #3 {
  %3 = alloca ptr, align 8
  %4 = alloca i32, align 4
  store ptr %0, ptr %3, align 8, !tbaa !3
  store i32 %1, ptr %4, align 4, !tbaa !16
  %5 = load ptr, ptr %3, align 8, !tbaa !3
  %6 = getelementptr inbounds nuw %struct.Gia_Man_t_, ptr %5, i32 0, i32 6
  %7 = load ptr, ptr %6, align 8, !tbaa !45
  %8 = load i32, ptr %4, align 4, !tbaa !16
  %9 = sext i32 %8 to i64
  %10 = getelementptr inbounds %struct.Gia_Obj_t_, ptr %7, i64 %9
  ret ptr %10
}

; Function Attrs: inlinehint nounwind uwtable
define internal i32 @Vec_IntEntry(ptr noundef %0, i32 noundef %1) #3 {
  %3 = alloca ptr, align 8
  %4 = alloca i32, align 4
  store ptr %0, ptr %3, align 8, !tbaa !10
  store i32 %1, ptr %4, align 4, !tbaa !16
  %5 = load ptr, ptr %3, align 8, !tbaa !10
  %6 = getelementptr inbounds nuw %struct.Vec_Int_t_, ptr %5, i32 0, i32 2
  %7 = load ptr, ptr %6, align 8, !tbaa !46
  %8 = load i32, ptr %4, align 4, !tbaa !16
  %9 = sext i32 %8 to i64
  %10 = getelementptr inbounds i32, ptr %7, i64 %9
  %11 = load i32, ptr %10, align 4, !tbaa !16
  ret i32 %11
}

; Function Attrs: inlinehint nounwind uwtable
define internal i32 @Abc_InfoHasBit(ptr noundef %0, i32 noundef %1) #3 {
  %3 = alloca ptr, align 8
  %4 = alloca i32, align 4
  store ptr %0, ptr %3, align 8, !tbaa !43
  store i32 %1, ptr %4, align 4, !tbaa !16
  %5 = load ptr, ptr %3, align 8, !tbaa !43
  %6 = load i32, ptr %4, align 4, !tbaa !16
  %7 = ashr i32 %6, 5
  %8 = sext i32 %7 to i64
  %9 = getelementptr inbounds i32, ptr %5, i64 %8
  %10 = load i32, ptr %9, align 4, !tbaa !16
  %11 = load i32, ptr %4, align 4, !tbaa !16
  %12 = and i32 %11, 31
  %13 = shl i32 1, %12
  %14 = and i32 %10, %13
  %15 = icmp ugt i32 %14, 0
  %16 = zext i1 %15 to i32
  ret i32 %16
}

; Function Attrs: inlinehint nounwind uwtable
define internal i32 @Vec_IntSize(ptr noundef %0) #3 {
  %2 = alloca ptr, align 8
  store ptr %0, ptr %2, align 8, !tbaa !10
  %3 = load ptr, ptr %2, align 8, !tbaa !10
  %4 = getelementptr inbounds nuw %struct.Vec_Int_t_, ptr %3, i32 0, i32 1
  %5 = load i32, ptr %4, align 4, !tbaa !42
  ret i32 %5
}

; Function Attrs: inlinehint nounwind uwtable
define internal i32 @Gia_ManPiNum(ptr noundef %0) #3 {
  %2 = alloca ptr, align 8
  store ptr %0, ptr %2, align 8, !tbaa !3
  %3 = load ptr, ptr %2, align 8, !tbaa !3
  %4 = getelementptr inbounds nuw %struct.Gia_Man_t_, ptr %3, i32 0, i32 11
  %5 = load ptr, ptr %4, align 8, !tbaa !41
  %6 = call i32 @Vec_IntSize(ptr noundef %5)
  %7 = load ptr, ptr %2, align 8, !tbaa !3
  %8 = getelementptr inbounds nuw %struct.Gia_Man_t_, ptr %7, i32 0, i32 2
  %9 = load i32, ptr %8, align 8, !tbaa !40
  %10 = sub nsw i32 %6, %9
  ret i32 %10
}

; Function Attrs: inlinehint nounwind uwtable
define internal i32 @Gia_ManRegNum(ptr noundef %0) #3 {
  %2 = alloca ptr, align 8
  store ptr %0, ptr %2, align 8, !tbaa !3
  %3 = load ptr, ptr %2, align 8, !tbaa !3
  %4 = getelementptr inbounds nuw %struct.Gia_Man_t_, ptr %3, i32 0, i32 2
  %5 = load i32, ptr %4, align 8, !tbaa !40
  ret i32 %5
}

; Function Attrs: nounwind uwtable
define ptr @Gia_ManCexRemap(ptr noundef %0, ptr noundef %1, ptr noundef %2) #0 {
  %4 = alloca ptr, align 8
  %5 = alloca ptr, align 8
  %6 = alloca ptr, align 8
  %7 = alloca ptr, align 8
  %8 = alloca i32, align 4
  %9 = alloca i32, align 4
  %10 = alloca i32, align 4
  store ptr %0, ptr %4, align 8, !tbaa !3
  store ptr %1, ptr %5, align 8, !tbaa !8
  store ptr %2, ptr %6, align 8, !tbaa !10
  call void @llvm.lifetime.start.p0(i64 8, ptr %7) #11
  call void @llvm.lifetime.start.p0(i64 4, ptr %8) #11
  call void @llvm.lifetime.start.p0(i64 4, ptr %9) #11
  call void @llvm.lifetime.start.p0(i64 4, ptr %10) #11
  %11 = load ptr, ptr %4, align 8, !tbaa !3
  %12 = call i32 @Gia_ManRegNum(ptr noundef %11)
  %13 = load ptr, ptr %4, align 8, !tbaa !3
  %14 = call i32 @Gia_ManPiNum(ptr noundef %13)
  %15 = load ptr, ptr %5, align 8, !tbaa !8
  %16 = getelementptr inbounds nuw %struct.Abc_Cex_t_, ptr %15, i32 0, i32 1
  %17 = load i32, ptr %16, align 4, !tbaa !12
  %18 = add nsw i32 %17, 1
  %19 = call ptr @Abc_CexAlloc(i32 noundef %12, i32 noundef %14, i32 noundef %18)
  store ptr %19, ptr %7, align 8, !tbaa !8
  %20 = load ptr, ptr %5, align 8, !tbaa !8
  %21 = getelementptr inbounds nuw %struct.Abc_Cex_t_, ptr %20, i32 0, i32 1
  %22 = load i32, ptr %21, align 4, !tbaa !12
  %23 = load ptr, ptr %7, align 8, !tbaa !8
  %24 = getelementptr inbounds nuw %struct.Abc_Cex_t_, ptr %23, i32 0, i32 1
  store i32 %22, ptr %24, align 4, !tbaa !12
  %25 = load ptr, ptr %5, align 8, !tbaa !8
  %26 = getelementptr inbounds nuw %struct.Abc_Cex_t_, ptr %25, i32 0, i32 0
  %27 = load i32, ptr %26, align 4, !tbaa !15
  %28 = load ptr, ptr %7, align 8, !tbaa !8
  %29 = getelementptr inbounds nuw %struct.Abc_Cex_t_, ptr %28, i32 0, i32 0
  store i32 %27, ptr %29, align 4, !tbaa !15
  store i32 0, ptr %9, align 4, !tbaa !16
  br label %30

30:                                               ; preds = %85, %3
  %31 = load i32, ptr %9, align 4, !tbaa !16
  %32 = load ptr, ptr %5, align 8, !tbaa !8
  %33 = getelementptr inbounds nuw %struct.Abc_Cex_t_, ptr %32, i32 0, i32 1
  %34 = load i32, ptr %33, align 4, !tbaa !12
  %35 = icmp sle i32 %31, %34
  br i1 %35, label %36, label %88

36:                                               ; preds = %30
  store i32 0, ptr %8, align 4, !tbaa !16
  br label %37

37:                                               ; preds = %81, %36
  %38 = load i32, ptr %8, align 4, !tbaa !16
  %39 = load ptr, ptr %6, align 8, !tbaa !10
  %40 = call i32 @Vec_IntSize(ptr noundef %39)
  %41 = icmp slt i32 %38, %40
  br i1 %41, label %42, label %84

42:                                               ; preds = %37
  %43 = load ptr, ptr %5, align 8, !tbaa !8
  %44 = getelementptr inbounds nuw %struct.Abc_Cex_t_, ptr %43, i32 0, i32 5
  %45 = getelementptr inbounds [0 x i32], ptr %44, i64 0, i64 0
  %46 = load ptr, ptr %5, align 8, !tbaa !8
  %47 = getelementptr inbounds nuw %struct.Abc_Cex_t_, ptr %46, i32 0, i32 2
  %48 = load i32, ptr %47, align 4, !tbaa !17
  %49 = load ptr, ptr %5, align 8, !tbaa !8
  %50 = getelementptr inbounds nuw %struct.Abc_Cex_t_, ptr %49, i32 0, i32 3
  %51 = load i32, ptr %50, align 4, !tbaa !18
  %52 = load i32, ptr %9, align 4, !tbaa !16
  %53 = mul nsw i32 %51, %52
  %54 = add nsw i32 %48, %53
  %55 = load i32, ptr %8, align 4, !tbaa !16
  %56 = add nsw i32 %54, %55
  %57 = call i32 @Abc_InfoHasBit(ptr noundef %45, i32 noundef %56)
  %58 = icmp ne i32 %57, 0
  br i1 %58, label %59, label %80

59:                                               ; preds = %42
  %60 = load ptr, ptr %4, align 8, !tbaa !3
  %61 = load ptr, ptr %6, align 8, !tbaa !10
  %62 = load i32, ptr %8, align 4, !tbaa !16
  %63 = call i32 @Vec_IntEntry(ptr noundef %61, i32 noundef %62)
  %64 = call ptr @Gia_ManObj(ptr noundef %60, i32 noundef %63)
  %65 = call i32 @Gia_ObjCioId(ptr noundef %64)
  store i32 %65, ptr %10, align 4, !tbaa !16
  %66 = load ptr, ptr %7, align 8, !tbaa !8
  %67 = getelementptr inbounds nuw %struct.Abc_Cex_t_, ptr %66, i32 0, i32 5
  %68 = getelementptr inbounds [0 x i32], ptr %67, i64 0, i64 0
  %69 = load ptr, ptr %7, align 8, !tbaa !8
  %70 = getelementptr inbounds nuw %struct.Abc_Cex_t_, ptr %69, i32 0, i32 2
  %71 = load i32, ptr %70, align 4, !tbaa !17
  %72 = load ptr, ptr %7, align 8, !tbaa !8
  %73 = getelementptr inbounds nuw %struct.Abc_Cex_t_, ptr %72, i32 0, i32 3
  %74 = load i32, ptr %73, align 4, !tbaa !18
  %75 = load i32, ptr %9, align 4, !tbaa !16
  %76 = mul nsw i32 %74, %75
  %77 = add nsw i32 %71, %76
  %78 = load i32, ptr %10, align 4, !tbaa !16
  %79 = add nsw i32 %77, %78
  call void @Abc_InfoSetBit(ptr noundef %68, i32 noundef %79)
  br label %80

80:                                               ; preds = %59, %42
  br label %81

81:                                               ; preds = %80
  %82 = load i32, ptr %8, align 4, !tbaa !16
  %83 = add nsw i32 %82, 1
  store i32 %83, ptr %8, align 4, !tbaa !16
  br label %37, !llvm.loop !19

84:                                               ; preds = %37
  br label %85

85:                                               ; preds = %84
  %86 = load i32, ptr %9, align 4, !tbaa !16
  %87 = add nsw i32 %86, 1
  store i32 %87, ptr %9, align 4, !tbaa !16
  br label %30, !llvm.loop !21

88:                                               ; preds = %30
  %89 = load ptr, ptr %4, align 8, !tbaa !3
  %90 = load ptr, ptr %7, align 8, !tbaa !8
  %91 = call i32 @Gia_ManVerifyCex(ptr noundef %89, ptr noundef %90, i32 noundef 0)
  %92 = icmp ne i32 %91, 0
  br i1 %92, label %95, label %93

93:                                               ; preds = %88
  call void (i32, ptr, ...) @Abc_Print(i32 noundef 1, ptr noundef @.str)
  %94 = load ptr, ptr %7, align 8, !tbaa !8
  call void @Abc_CexFree(ptr noundef %94)
  store ptr null, ptr %7, align 8, !tbaa !8
  br label %105

95:                                               ; preds = %88
  call void (i32, ptr, ...) @Abc_Print(i32 noundef 1, ptr noundef @.str.1)
  %96 = load ptr, ptr %7, align 8, !tbaa !8
  %97 = getelementptr inbounds nuw %struct.Abc_Cex_t_, ptr %96, i32 0, i32 0
  %98 = load i32, ptr %97, align 4, !tbaa !15
  %99 = load ptr, ptr %4, align 8, !tbaa !3
  %100 = getelementptr inbounds nuw %struct.Gia_Man_t_, ptr %99, i32 0, i32 0
  %101 = load ptr, ptr %100, align 8, !tbaa !22
  %102 = load ptr, ptr %7, align 8, !tbaa !8
  %103 = getelementptr inbounds nuw %struct.Abc_Cex_t_, ptr %102, i32 0, i32 1
  %104 = load i32, ptr %103, align 4, !tbaa !12
  call void (i32, ptr, ...) @Abc_Print(i32 noundef 1, ptr noundef @.str.2, i32 noundef %98, ptr noundef %101, i32 noundef %104)
  br label %105

105:                                              ; preds = %95, %93
  %106 = load ptr, ptr %7, align 8, !tbaa !8
  call void @llvm.lifetime.end.p0(i64 4, ptr %10) #11
  call void @llvm.lifetime.end.p0(i64 4, ptr %9) #11
  call void @llvm.lifetime.end.p0(i64 4, ptr %8) #11
  call void @llvm.lifetime.end.p0(i64 8, ptr %7) #11
  ret ptr %106
}