; Function Attrs: nounwind uwtable
define noundef ptr @Gia_ManCexRemap(ptr noundef %0, ptr noundef readonly captures(none) %1, ptr noundef readonly captures(none) %2) local_unnamed_addr #0 {
  %4 = getelementptr i8, ptr %0, i64 16
  %.val = load i32, ptr %4, align 8, !tbaa !3
  %5 = getelementptr i8, ptr %0, i64 64
  %.val38 = load ptr, ptr %5, align 8, !tbaa !28
  %6 = getelementptr i8, ptr %.val38, i64 4
  %.val38.val = load i32, ptr %6, align 4, !tbaa !29
  %7 = sub nsw i32 %.val38.val, %.val
  %8 = getelementptr inbounds nuw i8, ptr %1, i64 4
  %9 = load i32, ptr %8, align 4, !tbaa !30
  %10 = add nsw i32 %9, 1
  %11 = tail call ptr @Abc_CexAlloc(i32 noundef %.val, i32 noundef %7, i32 noundef %10) #14
  %12 = load i32, ptr %8, align 4, !tbaa !30
  %13 = getelementptr inbounds nuw i8, ptr %11, i64 4
  store i32 %12, ptr %13, align 4, !tbaa !30
  %14 = load i32, ptr %1, align 4, !tbaa !32
  store i32 %14, ptr %11, align 4, !tbaa !32
  %.not44 = icmp slt i32 %12, 0
  br i1 %.not44, label %._crit_edge46, label %.preheader.lr.ph

.preheader.lr.ph:                                 ; preds = %3
  %15 = getelementptr i8, ptr %2, i64 4
  %16 = getelementptr inbounds nuw i8, ptr %1, i64 20
  %17 = getelementptr inbounds nuw i8, ptr %1, i64 8
  %18 = getelementptr inbounds nuw i8, ptr %1, i64 12
  %19 = getelementptr i8, ptr %2, i64 8
  %20 = getelementptr i8, ptr %0, i64 32
  %21 = getelementptr inbounds nuw i8, ptr %11, i64 20
  %22 = getelementptr inbounds nuw i8, ptr %11, i64 8
  %23 = getelementptr inbounds nuw i8, ptr %11, i64 12
  %24 = load i32, ptr %15, align 4, !tbaa !29
  %25 = icmp sgt i32 %24, 0
  br i1 %25, label %.preheader, label %._crit_edge46

.preheader:                                       ; preds = %.preheader.lr.ph, %._crit_edge
  %26 = phi i32 [ %64, %._crit_edge ], [ %12, %.preheader.lr.ph ]
  %.val3651 = phi i32 [ %.val3652, %._crit_edge ], [ %24, %.preheader.lr.ph ]
  %.val3642 = phi i32 [ %.val364249, %._crit_edge ], [ %24, %.preheader.lr.ph ]
  %.03245 = phi i32 [ %65, %._crit_edge ], [ 0, %.preheader.lr.ph ]
  %27 = icmp sgt i32 %.val3642, 0
  br i1 %27, label %.lr.ph, label %._crit_edge

.lr.ph:                                           ; preds = %.preheader, %61
  %.val3653 = phi i32 [ %.val36, %61 ], [ %.val3651, %.preheader ]
  %indvars.iv = phi i64 [ %indvars.iv.next, %61 ], [ 0, %.preheader ]
  %28 = load i32, ptr %17, align 4, !tbaa !33
  %29 = load i32, ptr %18, align 4, !tbaa !34
  %30 = mul nsw i32 %29, %.03245
  %31 = trunc nuw nsw i64 %indvars.iv to i32
  %32 = add i32 %28, %31
  %33 = add i32 %32, %30
  %34 = ashr i32 %33, 5
  %35 = sext i32 %34 to i64
  %36 = getelementptr inbounds i32, ptr %16, i64 %35
  %37 = load i32, ptr %36, align 4, !tbaa !35
  %38 = and i32 %33, 31
  %39 = shl nuw i32 1, %38
  %40 = and i32 %39, %37
  %.not35 = icmp eq i32 %40, 0
  br i1 %.not35, label %61, label %41

41:                                               ; preds = %.lr.ph
  %.val39 = load ptr, ptr %19, align 8, !tbaa !36
  %42 = getelementptr inbounds nuw i32, ptr %.val39, i64 %indvars.iv
  %43 = load i32, ptr %42, align 4, !tbaa !35
  %.val40 = load ptr, ptr %20, align 8, !tbaa !37
  %44 = sext i32 %43 to i64
  %45 = getelementptr inbounds %struct.Gia_Obj_t_, ptr %.val40, i64 %44
  %.val41 = load i64, ptr %45, align 4
  %46 = lshr i64 %.val41, 32
  %47 = trunc nuw i64 %46 to i32
  %48 = and i32 %47, 536870911
  %49 = load i32, ptr %22, align 4, !tbaa !33
  %50 = load i32, ptr %23, align 4, !tbaa !34
  %51 = mul nsw i32 %50, %.03245
  %52 = add nsw i32 %51, %49
  %53 = add nsw i32 %52, %48
  %54 = and i32 %53, 31
  %55 = shl nuw i32 1, %54
  %56 = ashr i32 %53, 5
  %57 = sext i32 %56 to i64
  %58 = getelementptr inbounds i32, ptr %21, i64 %57
  %59 = load i32, ptr %58, align 4, !tbaa !35
  %60 = or i32 %55, %59
  store i32 %60, ptr %58, align 4, !tbaa !35
  %.val36.pre = load i32, ptr %15, align 4, !tbaa !29
  br label %61

61:                                               ; preds = %.lr.ph, %41
  %.val36 = phi i32 [ %.val3653, %.lr.ph ], [ %.val36.pre, %41 ]
  %indvars.iv.next = add nuw nsw i64 %indvars.iv, 1
  %62 = sext i32 %.val36 to i64
  %63 = icmp slt i64 %indvars.iv.next, %62
  br i1 %63, label %.lr.ph, label %._crit_edge.loopexit, !llvm.loop !38

._crit_edge.loopexit:                             ; preds = %61
  %.pre = load i32, ptr %8, align 4, !tbaa !30
  br label %._crit_edge

._crit_edge:                                      ; preds = %._crit_edge.loopexit, %.preheader
  %64 = phi i32 [ %.pre, %._crit_edge.loopexit ], [ %26, %.preheader ]
  %.val3652 = phi i32 [ %.val36, %._crit_edge.loopexit ], [ %.val3651, %.preheader ]
  %.val364249 = phi i32 [ %.val36, %._crit_edge.loopexit ], [ %.val3642, %.preheader ]
  %65 = add nuw nsw i32 %.03245, 1
  %.not.not = icmp slt i32 %.03245, %64
  br i1 %.not.not, label %.preheader, label %._crit_edge46, !llvm.loop !40

._crit_edge46:                                    ; preds = %._crit_edge, %.preheader.lr.ph, %3
  %66 = tail call i32 @Gia_ManVerifyCex(ptr noundef %0, ptr noundef nonnull %11, i32 noundef 0) #14
  %.not34 = icmp eq i32 %66, 0
  br i1 %.not34, label %67, label %68

67:                                               ; preds = %._crit_edge46
  tail call void (i32, ptr, ...) @Abc_Print(i32 poison, ptr noundef nonnull @.str)
  tail call void @Abc_CexFree(ptr noundef nonnull %11) #14
  br label %72

68:                                               ; preds = %._crit_edge46
  tail call void (i32, ptr, ...) @Abc_Print(i32 poison, ptr noundef nonnull @.str.1)
  %69 = load i32, ptr %11, align 4, !tbaa !32
  %70 = load ptr, ptr %0, align 8, !tbaa !42
  %71 = load i32, ptr %13, align 4, !tbaa !30
  tail call void (i32, ptr, ...) @Abc_Print(i32 poison, ptr noundef nonnull @.str.2, i32 noundef %69, ptr noundef %70, i32 noundef %71)
  br label %72

72:                                               ; preds = %68, %67
  %.0 = phi ptr [ %11, %68 ], [ null, %67 ]
  ret ptr %.0
}